target datalayout = "e-m:e-p270:32:32-p271:32:32-p272:64:64-i64:64-i128:128-f80:128-n8:16:32:64-S128"
target triple = "x86_64-pc-linux-gnu"

%struct.Variable = type { i32, double, double, double, ptr, i8, %"class.std::vector", %"class.std::vector" }
%"class.std::vector" = type { %"struct.std::_Vector_base" }
%"struct.std::_Vector_base" = type { %"struct.std::_Vector_base<Constraint *, std::allocator<Constraint *>>::_Vector_impl" }
%"struct.std::_Vector_base<Constraint *, std::allocator<Constraint *>>::_Vector_impl" = type { %"struct.std::_Vector_base<Constraint *, std::allocator<Constraint *>>::_Vector_impl_data" }
%"struct.std::_Vector_base<Constraint *, std::allocator<Constraint *>>::_Vector_impl_data" = type { ptr, ptr, ptr }
%class.Block = type { %"class.std::vector.0", double, double, double, i8, i64, %"class.std::vector", %"class.std::vector" }
%"class.std::vector.0" = type { %"struct.std::_Vector_base.1" }
%"struct.std::_Vector_base.1" = type { %"struct.std::_Vector_base<Variable *, std::allocator<Variable *>>::_Vector_impl" }
%"struct.std::_Vector_base<Variable *, std::allocator<Variable *>>::_Vector_impl" = type { %"struct.std::_Vector_base<Variable *, std::allocator<Variable *>>::_Vector_impl_data" }
%"struct.std::_Vector_base<Variable *, std::allocator<Variable *>>::_Vector_impl_data" = type { ptr, ptr, ptr }
%struct.Constraint = type <{ ptr, ptr, double, double, i64, i8, i8, [6 x i8] }>

; Function Attrs: mustprogress nounwind uwtable
define linkonce_odr noundef double @_ZNK8Variable8positionEv(ptr noundef nonnull align 8 dereferenceable(96) %0) #6 comdat align 2 {
  %2 = alloca ptr, align 8
  store ptr %0, ptr %2, align 8, !tbaa !8
  %3 = load ptr, ptr %2, align 8
  %4 = getelementptr inbounds nuw %struct.Variable, ptr %3, i32 0, i32 4
  %5 = load ptr, ptr %4, align 8, !tbaa !10
  %6 = getelementptr inbounds nuw %class.Block, ptr %5, i32 0, i32 1
  %7 = load double, ptr %6, align 8, !tbaa !32
  %8 = getelementptr inbounds nuw %struct.Variable, ptr %3, i32 0, i32 3
  %9 = load double, ptr %8, align 8, !tbaa !30
  %10 = fadd double %7, %9
  ret double %10
}

; Function Attrs: mustprogress uwtable
define linkonce_odr noundef double @_ZNK10Constraint5slackEv(ptr noundef nonnull align 8 dereferenceable(42) %0) #4 comdat align 2 {
  %2 = alloca ptr, align 8
  store ptr %0, ptr %2, align 8, !tbaa !53
  %3 = load ptr, ptr %2, align 8
  %4 = getelementptr inbounds nuw %struct.Constraint, ptr %3, i32 0, i32 1
  %5 = load ptr, ptr %4, align 8, !tbaa !59
  %6 = call noundef double @_ZNK8Variable8positionEv(ptr noundef nonnull align 8 dereferenceable(96) %5)
  %7 = getelementptr inbounds nuw %struct.Constraint, ptr %3, i32 0, i32 2
  %8 = load double, ptr %7, align 8, !tbaa !66
  %9 = fsub double %6, %8
  %10 = getelementptr inbounds nuw %struct.Constraint, ptr %3, i32 0, i32 0
  %11 = load ptr, ptr %10, align 8, !tbaa !58
  %12 = call noundef double @_ZNK8Variable8positionEv(ptr noundef nonnull align 8 dereferenceable(96) %11)
  %13 = fsub double %9, %12
  ret double %13
}

; Function Attrs: inlinehint mustprogress uwtable
define internal noundef zeroext i1 @_ZL18compareConstraintsPK10ConstraintS1_(ptr noundef %0, ptr noundef %1) #11 {
  %3 = alloca i1, align 1
  %4 = alloca ptr, align 8
  %5 = alloca ptr, align 8
  %6 = alloca double, align 8
  %7 = alloca double, align 8
  %8 = alloca i32, align 4
  store ptr %0, ptr %4, align 8, !tbaa !53
  store ptr %1, ptr %5, align 8, !tbaa !53
  call void @llvm.lifetime.start.p0(i64 8, ptr %6) #3
  %9 = load ptr, ptr %4, align 8, !tbaa !53
  %10 = getelementptr inbounds nuw %struct.Constraint, ptr %9, i32 0, i32 0
  %11 = load ptr, ptr %10, align 8, !tbaa !58
  %12 = getelementptr inbounds nuw %struct.Variable, ptr %11, i32 0, i32 4
  %13 = load ptr, ptr %12, align 8, !tbaa !10
  %14 = getelementptr inbounds nuw %class.Block, ptr %13, i32 0, i32 5
  %15 = load i64, ptr %14, align 8, !tbaa !38
  %16 = load ptr, ptr %4, align 8, !tbaa !53
  %17 = getelementptr inbounds nuw %struct.Constraint, ptr %16, i32 0, i32 4
  %18 = load i64, ptr %17, align 8, !tbaa !56
  %19 = icmp sgt i64 %15, %18
  br i1 %19, label %32, label %20

20:                                               ; preds = %2
  %21 = load ptr, ptr %4, align 8, !tbaa !53
  %22 = getelementptr inbounds nuw %struct.Constraint, ptr %21, i32 0, i32 0
  %23 = load ptr, ptr %22, align 8, !tbaa !58
  %24 = getelementptr inbounds nuw %struct.Variable, ptr %23, i32 0, i32 4
  %25 = load ptr, ptr %24, align 8, !tbaa !10
  %26 = load ptr, ptr %4, align 8, !tbaa !53
  %27 = getelementptr inbounds nuw %struct.Constraint, ptr %26, i32 0, i32 1
  %28 = load ptr, ptr %27, align 8, !tbaa !59
  %29 = getelementptr inbounds nuw %struct.Variable, ptr %28, i32 0, i32 4
  %30 = load ptr, ptr %29, align 8, !tbaa !10
  %31 = icmp eq ptr %25, %30
  br i1 %31, label %32, label %33

32:                                               ; preds = %20, %2
  br label %36

33:                                               ; preds = %20
  %34 = load ptr, ptr %4, align 8, !tbaa !53
  %35 = call noundef double @_ZNK10Constraint5slackEv(ptr noundef nonnull align 8 dereferenceable(42) %34)
  br label %36

36:                                               ; preds = %33, %32
  %37 = phi double [ 0xFFEFFFFFFFFFFFFF, %32 ], [ %35, %33 ]
  store double %37, ptr %6, align 8, !tbaa !45
  call void @llvm.lifetime.start.p0(i64 8, ptr %7) #3
  %38 = load ptr, ptr %5, align 8, !tbaa !53
  %39 = getelementptr inbounds nuw %struct.Constraint, ptr %38, i32 0, i32 0
  %40 = load ptr, ptr %39, align 8, !tbaa !58
  %41 = getelementptr inbounds nuw %struct.Variable, ptr %40, i32 0, i32 4
  %42 = load ptr, ptr %41, align 8, !tbaa !10
  %43 = getelementptr inbounds nuw %class.Block, ptr %42, i32 0, i32 5
  %44 = load i64, ptr %43, align 8, !tbaa !38
  %45 = load ptr, ptr %5, align 8, !tbaa !53
  %46 = getelementptr inbounds nuw %struct.Constraint, ptr %45, i32 0, i32 4
  %47 = load i64, ptr %46, align 8, !tbaa !56
  %48 = icmp sgt i64 %44, %47
  br i1 %48, label %61, label %49

49:                                               ; preds = %36
  %50 = load ptr, ptr %5, align 8, !tbaa !53
  %51 = getelementptr inbounds nuw %struct.Constraint, ptr %50, i32 0, i32 0
  %52 = load ptr, ptr %51, align 8, !tbaa !58
  %53 = getelementptr inbounds nuw %struct.Variable, ptr %52, i32 0, i32 4
  %54 = load ptr, ptr %53, align 8, !tbaa !10
  %55 = load ptr, ptr %5, align 8, !tbaa !53
  %56 = getelementptr inbounds nuw %struct.Constraint, ptr %55, i32 0, i32 1
  %57 = load ptr, ptr %56, align 8, !tbaa !59
  %58 = getelementptr inbounds nuw %struct.Variable, ptr %57, i32 0, i32 4
  %59 = load ptr, ptr %58, align 8, !tbaa !10
  %60 = icmp eq ptr %54, %59
  br i1 %60, label %61, label %62

61:                                               ; preds = %49, %36
  br label %65

62:                                               ; preds = %49
  %63 = load ptr, ptr %5, align 8, !tbaa !53
  %64 = call noundef double @_ZNK10Constraint5slackEv(ptr noundef nonnull align 8 dereferenceable(42) %63)
  br label %65

65:                                               ; preds = %62, %61
  %66 = phi double [ 0xFFEFFFFFFFFFFFFF, %61 ], [ %64, %62 ]
  store double %66, ptr %7, align 8, !tbaa !45
  %67 = load double, ptr %6, align 8, !tbaa !45
  %68 = load double, ptr %7, align 8, !tbaa !45
  %69 = fcmp oeq double %67, %68
  br i1 %69, label %70, label %110

70:                                               ; preds = %65
  %71 = load ptr, ptr %4, align 8, !tbaa !53
  %72 = getelementptr inbounds nuw %struct.Constraint, ptr %71, i32 0, i32 0
  %73 = load ptr, ptr %72, align 8, !tbaa !58
  %74 = getelementptr inbounds nuw %struct.Variable, ptr %73, i32 0, i32 0
  %75 = load i32, ptr %74, align 8, !tbaa !127
  %76 = load ptr, ptr %5, align 8, !tbaa !53
  %77 = getelementptr inbounds nuw %struct.Constraint, ptr %76, i32 0, i32 0
  %78 = load ptr, ptr %77, align 8, !tbaa !58
  %79 = getelementptr inbounds nuw %struct.Variable, ptr %78, i32 0, i32 0
  %80 = load i32, ptr %79, align 8, !tbaa !127
  %81 = icmp eq i32 %75, %80
  br i1 %81, label %82, label %96

82:                                               ; preds = %70
  %83 = load ptr, ptr %4, align 8, !tbaa !53
  %84 = getelementptr inbounds nuw %struct.Constraint, ptr %83, i32 0, i32 1
  %85 = load ptr, ptr %84, align 8, !tbaa !59
  %86 = getelementptr inbounds nuw %struct.Variable, ptr %85, i32 0, i32 0
  %87 = load i32, ptr %86, align 8, !tbaa !127
  %88 = load ptr, ptr %5, align 8, !tbaa !53
  %89 = getelementptr inbounds nuw %struct.Constraint, ptr %88, i32 0, i32 1
  %90 = load ptr, ptr %89, align 8, !tbaa !59
  %91 = getelementptr inbounds nuw %struct.Variable, ptr %90, i32 0, i32 0
  %92 = load i32, ptr %91, align 8, !tbaa !127
  %93 = icmp slt i32 %87, %92
  br i1 %93, label %94, label %95

94:                                               ; preds = %82
  store i1 true, ptr %3, align 1
  store i32 1, ptr %8, align 4
  br label %114

95:                                               ; preds = %82
  store i1 false, ptr %3, align 1
  store i32 1, ptr %8, align 4
  br label %114

96:                                               ; preds = %70
  %97 = load ptr, ptr %4, align 8, !tbaa !53
  %98 = getelementptr inbounds nuw %struct.Constraint, ptr %97, i32 0, i32 0
  %99 = load ptr, ptr %98, align 8, !tbaa !58
  %100 = getelementptr inbounds nuw %struct.Variable, ptr %99, i32 0, i32 0
  %101 = load i32, ptr %100, align 8, !tbaa !127
  %102 = load ptr, ptr %5, align 8, !tbaa !53
  %103 = getelementptr inbounds nuw %struct.Constraint, ptr %102, i32 0, i32 0
  %104 = load ptr, ptr %103, align 8, !tbaa !58
  %105 = getelementptr inbounds nuw %struct.Variable, ptr %104, i32 0, i32 0
  %106 = load i32, ptr %105, align 8, !tbaa !127
  %107 = icmp slt i32 %101, %106
  br i1 %107, label %108, label %109

108:                                              ; preds = %96
  store i1 true, ptr %3, align 1
  store i32 1, ptr %8, align 4
  br label %114

109:                                              ; preds = %96
  store i1 false, ptr %3, align 1
  store i32 1, ptr %8, align 4
  br label %114

110:                                              ; preds = %65
  %111 = load double, ptr %6, align 8, !tbaa !45
  %112 = load double, ptr %7, align 8, !tbaa !45
  %113 = fcmp olt double %111, %112
  store i1 %113, ptr %3, align 1
  store i32 1, ptr %8, align 4
  br label %114

114:                                              ; preds = %110, %109, %108, %95, %94
  call void @llvm.lifetime.end.p0(i64 8, ptr %7) #3
  call void @llvm.lifetime.end.p0(i64 8, ptr %6) #3
  %115 = load i1, ptr %3, align 1
  ret i1 %115
}

; Function Attrs: mustprogress uwtable
define internal noundef zeroext i1 @_ZL2gtPK10ConstraintS1_(ptr noundef %0, ptr noundef %1) #4 {
  %3 = alloca ptr, align 8
  %4 = alloca ptr, align 8
  store ptr %0, ptr %3, align 8, !tbaa !53
  store ptr %1, ptr %4, align 8, !tbaa !53
  %5 = load ptr, ptr %4, align 8, !tbaa !53
  %6 = load ptr, ptr %3, align 8, !tbaa !53
  %7 = call noundef zeroext i1 @_ZL18compareConstraintsPK10ConstraintS1_(ptr noundef %5, ptr noundef %6)
  ret i1 %7
}