; Function Attrs: mustprogress nofree norecurse nosync nounwind willreturn memory(read, inaccessiblemem: none) uwtable
define internal noundef zeroext i1 @_ZL2gtPK10ConstraintS1_(ptr noundef readonly captures(none) %0, ptr noundef readonly captures(none) %1) #5 {
  %3 = load ptr, ptr %1, align 8, !tbaa !47
  %4 = getelementptr inbounds nuw i8, ptr %3, i64 32
  %5 = load ptr, ptr %4, align 8, !tbaa !3
  %6 = getelementptr inbounds nuw i8, ptr %5, i64 56
  %7 = load i64, ptr %6, align 8, !tbaa !52
  %8 = getelementptr inbounds nuw i8, ptr %1, i64 32
  %9 = load i64, ptr %8, align 8, !tbaa !45
  %10 = icmp sgt i64 %7, %9
  br i1 %10, label %32, label %11

11:                                               ; preds = %2
  %12 = getelementptr inbounds nuw i8, ptr %1, i64 8
  %13 = load ptr, ptr %12, align 8, !tbaa !48
  %14 = getelementptr inbounds nuw i8, ptr %13, i64 32
  %15 = load ptr, ptr %14, align 8, !tbaa !3
  %16 = icmp eq ptr %5, %15
  br i1 %16, label %32, label %17

17:                                               ; preds = %11
  %18 = getelementptr inbounds nuw i8, ptr %15, i64 24
  %19 = load double, ptr %18, align 8, !tbaa !34
  %20 = getelementptr inbounds nuw i8, ptr %13, i64 24
  %21 = load double, ptr %20, align 8, !tbaa !32
  %22 = fadd double %19, %21
  %23 = getelementptr inbounds nuw i8, ptr %1, i64 16
  %24 = load double, ptr %23, align 8, !tbaa !49
  %25 = fsub double %22, %24
  %26 = getelementptr inbounds nuw i8, ptr %5, i64 24
  %27 = load double, ptr %26, align 8, !tbaa !34
  %28 = getelementptr inbounds nuw i8, ptr %3, i64 24
  %29 = load double, ptr %28, align 8, !tbaa !32
  %30 = fadd double %27, %29
  %31 = fsub double %25, %30
  br label %32

32:                                               ; preds = %17, %11, %2
  %33 = phi double [ %31, %17 ], [ 0xFFEFFFFFFFFFFFFF, %11 ], [ 0xFFEFFFFFFFFFFFFF, %2 ]
  %34 = load ptr, ptr %0, align 8, !tbaa !47
  %35 = getelementptr inbounds nuw i8, ptr %34, i64 32
  %36 = load ptr, ptr %35, align 8, !tbaa !3
  %37 = getelementptr inbounds nuw i8, ptr %36, i64 56
  %38 = load i64, ptr %37, align 8, !tbaa !52
  %39 = getelementptr inbounds nuw i8, ptr %0, i64 32
  %40 = load i64, ptr %39, align 8, !tbaa !45
  %41 = icmp sgt i64 %38, %40
  br i1 %41, label %63, label %42

42:                                               ; preds = %32
  %43 = getelementptr inbounds nuw i8, ptr %0, i64 8
  %44 = load ptr, ptr %43, align 8, !tbaa !48
  %45 = getelementptr inbounds nuw i8, ptr %44, i64 32
  %46 = load ptr, ptr %45, align 8, !tbaa !3
  %47 = icmp eq ptr %36, %46
  br i1 %47, label %63, label %48

48:                                               ; preds = %42
  %49 = getelementptr inbounds nuw i8, ptr %46, i64 24
  %50 = load double, ptr %49, align 8, !tbaa !34
  %51 = getelementptr inbounds nuw i8, ptr %44, i64 24
  %52 = load double, ptr %51, align 8, !tbaa !32
  %53 = fadd double %50, %52
  %54 = getelementptr inbounds nuw i8, ptr %0, i64 16
  %55 = load double, ptr %54, align 8, !tbaa !49
  %56 = fsub double %53, %55
  %57 = getelementptr inbounds nuw i8, ptr %36, i64 24
  %58 = load double, ptr %57, align 8, !tbaa !34
  %59 = getelementptr inbounds nuw i8, ptr %34, i64 24
  %60 = load double, ptr %59, align 8, !tbaa !32
  %61 = fadd double %58, %60
  %62 = fsub double %56, %61
  br label %63

63:                                               ; preds = %48, %42, %32
  %64 = phi double [ %62, %48 ], [ 0xFFEFFFFFFFFFFFFF, %42 ], [ 0xFFEFFFFFFFFFFFFF, %32 ]
  %65 = fcmp oeq double %33, %64
  br i1 %65, label %66, label %80

66:                                               ; preds = %63
  %67 = load i32, ptr %3, align 8, !tbaa !53
  %68 = load i32, ptr %34, align 8, !tbaa !53
  %69 = icmp eq i32 %67, %68
  br i1 %69, label %70, label %78

70:                                               ; preds = %66
  %71 = getelementptr inbounds nuw i8, ptr %1, i64 8
  %72 = load ptr, ptr %71, align 8, !tbaa !48
  %73 = load i32, ptr %72, align 8, !tbaa !53
  %74 = getelementptr inbounds nuw i8, ptr %0, i64 8
  %75 = load ptr, ptr %74, align 8, !tbaa !48
  %76 = load i32, ptr %75, align 8, !tbaa !53
  %77 = icmp slt i32 %73, %76
  br label %_ZL18compareConstraintsPK10ConstraintS1_.exit

78:                                               ; preds = %66
  %79 = icmp slt i32 %67, %68
  br label %_ZL18compareConstraintsPK10ConstraintS1_.exit

80:                                               ; preds = %63
  %81 = fcmp olt double %33, %64
  br label %_ZL18compareConstraintsPK10ConstraintS1_.exit

_ZL18compareConstraintsPK10ConstraintS1_.exit:    ; preds = %70, %78, %80
  %.0.i = phi i1 [ %81, %80 ], [ %77, %70 ], [ %79, %78 ]
  ret i1 %.0.i
}